; Function Attrs: inlinehint mustprogress nounwind uwtable
define internal void @_ZN5ZXing4OneD12_GLOBAL__N_19DXFEStateD2Ev(ptr noundef nonnull align 8 captures(none) dereferenceable(40) initializes((0, 8)) %0) unnamed_addr #7 align 2 personality ptr @__gxx_personality_v0 {
  store ptr getelementptr inbounds nuw inrange(-16, 16) (i8, ptr @_ZTVN5ZXing4OneD12_GLOBAL__N_19DXFEStateE, i64 16), ptr %0, align 8, !tbaa !8
  %2 = getelementptr inbounds nuw i8, ptr %0, i64 16
  %.val = load ptr, ptr %2, align 8
  %.not.i.i.i = icmp eq ptr %.val, null
  br i1 %.not.i.i.i, label %_ZNSt6vectorIN5ZXing4OneD12_GLOBAL__N_15ClockESaIS3_EED2Ev.exit, label %3

3:                                                ; preds = %1
  %4 = getelementptr inbounds nuw i8, ptr %0, i64 32
  %.val1 = load ptr, ptr %4, align 8
  %5 = ptrtoint ptr %.val1 to i64
  %6 = ptrtoint ptr %.val to i64
  %7 = sub i64 %5, %6
  tail call void @_ZdlPvm(ptr noundef nonnull %.val, i64 noundef %7) #20
  br label %_ZNSt6vectorIN5ZXing4OneD12_GLOBAL__N_15ClockESaIS3_EED2Ev.exit

_ZNSt6vectorIN5ZXing4OneD12_GLOBAL__N_15ClockESaIS3_EED2Ev.exit: ; preds = %1, %3
  ret void
}